target datalayout = "e-m:e-p270:32:32-p271:32:32-p272:64:64-i64:64-i128:128-f80:128-n8:16:32:64-S128"
target triple = "x86_64-unknown-linux-gnu"

%"class.v8::IndirectHandleBase" = type { ptr }
%"class.v8::Global" = type { %"class.v8::PersistentBase" }
%"class.v8::PersistentBase" = type { %"class.v8::IndirectHandleBase" }
%"class.v8::Global.0" = type { %"class.v8::PersistentBase.1" }
%"class.v8::PersistentBase.1" = type { %"class.v8::IndirectHandleBase" }
%"class.v8impl::RefTracker" = type { ptr, ptr, ptr }
%"class.std::unordered_set" = type { %"class.std::_Hashtable" }
%"class.std::_Hashtable" = type { ptr, i64, %"struct.std::__detail::_Hash_node_base", i64, %"struct.std::__detail::_Prime_rehash_policy", ptr }
%"struct.std::__detail::_Hash_node_base" = type { ptr }
%"struct.std::__detail::_Prime_rehash_policy" = type { float, i64 }
%struct.napi_extended_error_info = type { ptr, ptr, i32, i32 }
%struct.napi_env__ = type <{ ptr, ptr, %"class.v8::Global", %"class.v8::Global.0", %"class.v8impl::RefTracker", %"class.v8impl::RefTracker", %"class.std::unordered_set", %struct.napi_extended_error_info, i32, i32, i32, [4 x i8], ptr, i32, i8, [3 x i8] }>

; Function Attrs: mustprogress nounwind uwtable
define internal void @_ZN6v8impl12_GLOBAL__N_112AsyncContext13CallbackScopeD2Ev(ptr noundef nonnull align 8 dereferenceable(56) %this) unnamed_addr #4 align 2 {
entry:
  %this.addr = alloca ptr, align 8
  store ptr %this, ptr %this.addr, align 8
  %this1 = load ptr, ptr %this.addr, align 8
  call void @_ZN4node13CallbackScopeD2Ev(ptr noundef nonnull align 8 dereferenceable(56) %this1) #3
  ret void
}

; Function Attrs: mustprogress nounwind uwtable
define linkonce_odr dso_local noundef i32 @_Z21napi_clear_last_errorP10napi_env__(ptr noundef %env) #4 comdat {
entry:
  %env.addr = alloca ptr, align 8
  store ptr %env, ptr %env.addr, align 8
  %0 = load ptr, ptr %env.addr, align 8
  %last_error = getelementptr inbounds %struct.napi_env__, ptr %0, i32 0, i32 7
  %error_code = getelementptr inbounds %struct.napi_extended_error_info, ptr %last_error, i32 0, i32 3
  store i32 0, ptr %error_code, align 4
  %1 = load ptr, ptr %env.addr, align 8
  %last_error1 = getelementptr inbounds %struct.napi_env__, ptr %1, i32 0, i32 7
  %engine_error_code = getelementptr inbounds %struct.napi_extended_error_info, ptr %last_error1, i32 0, i32 2
  store i32 0, ptr %engine_error_code, align 8
  %2 = load ptr, ptr %env.addr, align 8
  %last_error2 = getelementptr inbounds %struct.napi_env__, ptr %2, i32 0, i32 7
  %engine_reserved = getelementptr inbounds %struct.napi_extended_error_info, ptr %last_error2, i32 0, i32 1
  store ptr null, ptr %engine_reserved, align 8
  %3 = load ptr, ptr %env.addr, align 8
  %last_error3 = getelementptr inbounds %struct.napi_env__, ptr %3, i32 0, i32 7
  %error_message = getelementptr inbounds %struct.napi_extended_error_info, ptr %last_error3, i32 0, i32 0
  store ptr null, ptr %error_message, align 8
  ret i32 0
}

; Function Attrs: mustprogress nounwind uwtable
define internal void @_ZN6v8impl12_GLOBAL__N_112AsyncContext18CloseCallbackScopeEP15node_napi_env__P21napi_callback_scope__(ptr noundef %env, ptr noundef %s) #4 align 2 {
entry:
  %env.addr = alloca ptr, align 8
  %s.addr = alloca ptr, align 8
  %callback_scope = alloca ptr, align 8
  store ptr %env, ptr %env.addr, align 8
  store ptr %s, ptr %s.addr, align 8
  %0 = load ptr, ptr %s.addr, align 8
  store ptr %0, ptr %callback_scope, align 8
  %1 = load ptr, ptr %callback_scope, align 8
  %isnull = icmp eq ptr %1, null
  br i1 %isnull, label %delete.end, label %delete.notnull

delete.notnull:                                   ; preds = %entry
  call void @_ZN6v8impl12_GLOBAL__N_112AsyncContext13CallbackScopeD2Ev(ptr noundef nonnull align 8 dereferenceable(56) %1) #3
  call void @_ZdlPv(ptr noundef %1) #17
  br label %delete.end

delete.end:                                       ; preds = %delete.notnull, %entry
  %2 = load ptr, ptr %env.addr, align 8
  %open_callback_scopes = getelementptr inbounds %struct.napi_env__, ptr %2, i32 0, i32 9
  %3 = load i32, ptr %open_callback_scopes, align 4
  %dec = add nsw i32 %3, -1
  store i32 %dec, ptr %open_callback_scopes, align 4
  ret void
}

; Function Attrs: mustprogress nounwind uwtable
define linkonce_odr dso_local noundef i32 @_Z19napi_set_last_errorP10napi_env__11napi_statusjPv(ptr noundef %env, i32 noundef %error_code, i32 noundef %engine_error_code, ptr noundef %engine_reserved) #4 comdat {
entry:
  %env.addr = alloca ptr, align 8
  %error_code.addr = alloca i32, align 4
  %engine_error_code.addr = alloca i32, align 4
  %engine_reserved.addr = alloca ptr, align 8
  store ptr %env, ptr %env.addr, align 8
  store i32 %error_code, ptr %error_code.addr, align 4
  store i32 %engine_error_code, ptr %engine_error_code.addr, align 4
  store ptr %engine_reserved, ptr %engine_reserved.addr, align 8
  %0 = load i32, ptr %error_code.addr, align 4
  %1 = load ptr, ptr %env.addr, align 8
  %last_error = getelementptr inbounds %struct.napi_env__, ptr %1, i32 0, i32 7
  %error_code1 = getelementptr inbounds %struct.napi_extended_error_info, ptr %last_error, i32 0, i32 3
  store i32 %0, ptr %error_code1, align 4
  %2 = load i32, ptr %engine_error_code.addr, align 4
  %3 = load ptr, ptr %env.addr, align 8
  %last_error2 = getelementptr inbounds %struct.napi_env__, ptr %3, i32 0, i32 7
  %engine_error_code3 = getelementptr inbounds %struct.napi_extended_error_info, ptr %last_error2, i32 0, i32 2
  store i32 %2, ptr %engine_error_code3, align 8
  %4 = load ptr, ptr %engine_reserved.addr, align 8
  %5 = load ptr, ptr %env.addr, align 8
  %last_error4 = getelementptr inbounds %struct.napi_env__, ptr %5, i32 0, i32 7
  %engine_reserved5 = getelementptr inbounds %struct.napi_extended_error_info, ptr %last_error4, i32 0, i32 1
  store ptr %4, ptr %engine_reserved5, align 8
  %6 = load i32, ptr %error_code.addr, align 4
  ret i32 %6
}

; Function Attrs: mustprogress nounwind uwtable
define dso_local i32 @napi_close_callback_scope(ptr noundef %env, ptr noundef %scope) #4 {
entry:
  %retval = alloca i32, align 4
  %env.addr = alloca ptr, align 8
  %scope.addr = alloca ptr, align 8
  store ptr %env, ptr %env.addr, align 8
  store ptr %scope, ptr %scope.addr, align 8
  br label %do.body

do.body:                                          ; preds = %entry
  %0 = load ptr, ptr %env.addr, align 8
  %cmp = icmp eq ptr %0, null
  br i1 %cmp, label %if.then, label %if.end

if.then:                                          ; preds = %do.body
  store i32 1, ptr %retval, align 4
  br label %return

if.end:                                           ; preds = %do.body
  br label %do.end

do.end:                                           ; preds = %if.end
  br label %do.body1

do.body1:                                         ; preds = %do.end
  %1 = load ptr, ptr %scope.addr, align 8
  %cmp2 = icmp ne ptr %1, null
  br i1 %cmp2, label %if.end4, label %if.then3

if.then3:                                         ; preds = %do.body1
  %2 = load ptr, ptr %env.addr, align 8
  %call = call noundef i32 @_Z19napi_set_last_errorP10napi_env__11napi_statusjPv(ptr noundef %2, i32 noundef 1, i32 noundef 0, ptr noundef null)
  store i32 %call, ptr %retval, align 4
  br label %return

if.end4:                                          ; preds = %do.body1
  br label %do.end5

do.end5:                                          ; preds = %if.end4
  %3 = load ptr, ptr %env.addr, align 8
  %open_callback_scopes = getelementptr inbounds %struct.napi_env__, ptr %3, i32 0, i32 9
  %4 = load i32, ptr %open_callback_scopes, align 4
  %cmp6 = icmp eq i32 %4, 0
  br i1 %cmp6, label %if.then7, label %if.end8

if.then7:                                         ; preds = %do.end5
  store i32 14, ptr %retval, align 4
  br label %return

if.end8:                                          ; preds = %do.end5
  %5 = load ptr, ptr %env.addr, align 8
  %6 = load ptr, ptr %scope.addr, align 8
  call void @_ZN6v8impl12_GLOBAL__N_112AsyncContext18CloseCallbackScopeEP15node_napi_env__P21napi_callback_scope__(ptr noundef %5, ptr noundef %6)
  %7 = load ptr, ptr %env.addr, align 8
  %call9 = call noundef i32 @_Z21napi_clear_last_errorP10napi_env__(ptr noundef %7)
  store i32 %call9, ptr %retval, align 4
  br label %return

return:                                           ; preds = %if.end8, %if.then7, %if.then3, %if.then
  %8 = load i32, ptr %retval, align 4
  ret i32 %8
}