; Function Attrs: mustprogress nounwind uwtable
define dso_local noundef i32 @napi_close_callback_scope(ptr noundef %env, ptr noundef %scope) local_unnamed_addr #3 {
entry:
  %cmp = icmp eq ptr %env, null
  br i1 %cmp, label %return, label %do.body1

do.body1:                                         ; preds = %entry
  %cmp2.not = icmp eq ptr %scope, null
  br i1 %cmp2.not, label %if.then3, label %do.end5

if.then3:                                         ; preds = %do.body1
  %error_code1.i = getelementptr inbounds i8, ptr %env, i64 156
  store i32 1, ptr %error_code1.i, align 4
  %engine_error_code3.i = getelementptr inbounds i8, ptr %env, i64 152
  store i32 0, ptr %engine_error_code3.i, align 8
  %engine_reserved5.i = getelementptr inbounds i8, ptr %env, i64 144
  store ptr null, ptr %engine_reserved5.i, align 8
  br label %return

do.end5:                                          ; preds = %do.body1
  %open_callback_scopes = getelementptr inbounds i8, ptr %env, i64 164
  %0 = load i32, ptr %open_callback_scopes, align 4
  %cmp6 = icmp eq i32 %0, 0
  br i1 %cmp6, label %return, label %if.end8

if.end8:                                          ; preds = %do.end5
  tail call void @_ZN4node13CallbackScopeD2Ev(ptr noundef nonnull align 8 dereferenceable(56) %scope) #21
  tail call void @_ZdlPv(ptr noundef nonnull %scope) #24
  %1 = load i32, ptr %open_callback_scopes, align 4
  %dec.i = add nsw i32 %1, -1
  store i32 %dec.i, ptr %open_callback_scopes, align 4
  %last_error.i = getelementptr inbounds i8, ptr %env, i64 136
  tail call void @llvm.memset.p0.i64(ptr noundef nonnull align 8 dereferenceable(24) %last_error.i, i8 0, i64 24, i1 false)
  br label %return

return:                                           ; preds = %do.end5, %entry, %if.end8, %if.then3
  %retval.0 = phi i32 [ 0, %if.end8 ], [ 1, %if.then3 ], [ 1, %entry ], [ 14, %do.end5 ]
  ret i32 %retval.0
}